target datalayout = "e-m:e-p270:32:32-p271:32:32-p272:64:64-i64:64-i128:128-f80:128-n8:16:32:64-S128"
target triple = "x86_64-pc-linux-gnu"

%struct.AVOption = type { ptr, ptr, i32, i32, %union.anon, double, double, i32, ptr }
%union.anon = type { i64 }

@.str.103 = private unnamed_addr constant [60 x i8] c"Missing key or no key/value separator found after key '%s'\0A\00", align 1
@.str.104 = private unnamed_addr constant [43 x i8] c"Setting entry with key '%s' to value '%s'\0A\00", align 1
@.str.105 = private unnamed_addr constant [21 x i8] c"Key '%s' not found.\0A\00", align 1

; Function Attrs: nounwind uwtable
define i32 @av_opt_set(ptr noundef %0, ptr noundef %1, ptr noundef %2, i32 noundef %3) #0 {
  %5 = alloca i32, align 4
  %6 = alloca ptr, align 8
  %7 = alloca ptr, align 8
  %8 = alloca ptr, align 8
  %9 = alloca i32, align 4
  %10 = alloca ptr, align 8
  %11 = alloca ptr, align 8
  %12 = alloca ptr, align 8
  %13 = alloca i32, align 4
  %14 = alloca i32, align 4
  store ptr %0, ptr %6, align 8, !tbaa !4
  store ptr %1, ptr %7, align 8, !tbaa !19
  store ptr %2, ptr %8, align 8, !tbaa !19
  store i32 %3, ptr %9, align 4, !tbaa !20
  call void @llvm.lifetime.start.p0(i64 8, ptr %10) #11
  call void @llvm.lifetime.start.p0(i64 8, ptr %11) #11
  call void @llvm.lifetime.start.p0(i64 8, ptr %12) #11
  call void @llvm.lifetime.start.p0(i64 4, ptr %13) #11
  %15 = load ptr, ptr %6, align 8, !tbaa !4
  %16 = load ptr, ptr %7, align 8, !tbaa !19
  %17 = load i32, ptr %9, align 4, !tbaa !20
  %18 = call i32 @opt_set_init(ptr noundef %15, ptr noundef %16, i32 noundef %17, i32 noundef 0, ptr noundef %11, ptr noundef %12, ptr noundef %10)
  store i32 %18, ptr %13, align 4, !tbaa !20
  %19 = load i32, ptr %13, align 4, !tbaa !20
  %20 = icmp slt i32 %19, 0
  br i1 %20, label %21, label %23

21:                                               ; preds = %4
  %22 = load i32, ptr %13, align 4, !tbaa !20
  store i32 %22, ptr %5, align 4
  store i32 1, ptr %14, align 4
  br label %36

23:                                               ; preds = %4
  %24 = load ptr, ptr %12, align 8, !tbaa !8
  %25 = getelementptr inbounds nuw %struct.AVOption, ptr %24, i32 0, i32 3
  %26 = load i32, ptr %25, align 4, !tbaa !21
  %27 = and i32 %26, 65536
  %28 = icmp ne i32 %27, 0
  %29 = select i1 %28, ptr @opt_set_array, ptr @opt_set_elem
  %30 = load ptr, ptr %6, align 8, !tbaa !4
  %31 = load ptr, ptr %11, align 8, !tbaa !4
  %32 = load ptr, ptr %12, align 8, !tbaa !8
  %33 = load ptr, ptr %8, align 8, !tbaa !19
  %34 = load ptr, ptr %10, align 8, !tbaa !4
  %35 = call i32 %29(ptr noundef %30, ptr noundef %31, ptr noundef %32, ptr noundef %33, ptr noundef %34)
  store i32 %35, ptr %5, align 4
  store i32 1, ptr %14, align 4
  br label %36

36:                                               ; preds = %23, %21
  call void @llvm.lifetime.end.p0(i64 4, ptr %13) #11
  call void @llvm.lifetime.end.p0(i64 8, ptr %12) #11
  call void @llvm.lifetime.end.p0(i64 8, ptr %11) #11
  call void @llvm.lifetime.end.p0(i64 8, ptr %10) #11
  %37 = load i32, ptr %5, align 4
  ret i32 %37
}

; Function Attrs: nounwind uwtable
define internal i32 @parse_key_value_pair(ptr noundef %0, ptr noundef %1, ptr noundef %2, ptr noundef %3) #0 {
  %5 = alloca i32, align 4
  %6 = alloca ptr, align 8
  %7 = alloca ptr, align 8
  %8 = alloca ptr, align 8
  %9 = alloca ptr, align 8
  %10 = alloca ptr, align 8
  %11 = alloca ptr, align 8
  %12 = alloca i32, align 4
  %13 = alloca i32, align 4
  store ptr %0, ptr %6, align 8, !tbaa !4
  store ptr %1, ptr %7, align 8, !tbaa !63
  store ptr %2, ptr %8, align 8, !tbaa !19
  store ptr %3, ptr %9, align 8, !tbaa !19
  call void @llvm.lifetime.start.p0(i64 8, ptr %10) #11
  %14 = load ptr, ptr %7, align 8, !tbaa !63
  %15 = load ptr, ptr %8, align 8, !tbaa !19
  %16 = call ptr @av_get_token(ptr noundef %14, ptr noundef %15)
  store ptr %16, ptr %10, align 8, !tbaa !19
  call void @llvm.lifetime.start.p0(i64 8, ptr %11) #11
  call void @llvm.lifetime.start.p0(i64 4, ptr %12) #11
  %17 = load ptr, ptr %10, align 8, !tbaa !19
  %18 = icmp ne ptr %17, null
  br i1 %18, label %20, label %19

19:                                               ; preds = %4
  store i32 -12, ptr %5, align 4
  store i32 1, ptr %13, align 4
  br label %63

20:                                               ; preds = %4
  %21 = load ptr, ptr %10, align 8, !tbaa !19
  %22 = load i8, ptr %21, align 1, !tbaa !35
  %23 = sext i8 %22 to i32
  %24 = icmp ne i32 %23, 0
  br i1 %24, label %25, label %42

25:                                               ; preds = %20
  %26 = load ptr, ptr %7, align 8, !tbaa !63
  %27 = load ptr, ptr %26, align 8, !tbaa !19
  %28 = load ptr, ptr %8, align 8, !tbaa !19
  %29 = call i64 @strspn(ptr noundef %27, ptr noundef %28) #12
  %30 = icmp ne i64 %29, 0
  br i1 %30, label %31, label %42

31:                                               ; preds = %25
  %32 = load ptr, ptr %7, align 8, !tbaa !63
  %33 = load ptr, ptr %32, align 8, !tbaa !19
  %34 = getelementptr inbounds nuw i8, ptr %33, i32 1
  store ptr %34, ptr %32, align 8, !tbaa !19
  %35 = load ptr, ptr %7, align 8, !tbaa !63
  %36 = load ptr, ptr %9, align 8, !tbaa !19
  %37 = call ptr @av_get_token(ptr noundef %35, ptr noundef %36)
  store ptr %37, ptr %11, align 8, !tbaa !19
  %38 = load ptr, ptr %11, align 8, !tbaa !19
  %39 = icmp ne ptr %38, null
  br i1 %39, label %41, label %40

40:                                               ; preds = %31
  call void @av_freep(ptr noundef %10)
  store i32 -12, ptr %5, align 4
  store i32 1, ptr %13, align 4
  br label %63

41:                                               ; preds = %31
  br label %46

42:                                               ; preds = %25, %20
  %43 = load ptr, ptr %6, align 8, !tbaa !4
  %44 = load ptr, ptr %10, align 8, !tbaa !19
  call void (ptr, i32, ptr, ...) @av_log(ptr noundef %43, i32 noundef 16, ptr noundef @.str.103, ptr noundef %44)
  %45 = load ptr, ptr %10, align 8, !tbaa !19
  call void @av_free(ptr noundef %45)
  store i32 -22, ptr %5, align 4
  store i32 1, ptr %13, align 4
  br label %63

46:                                               ; preds = %41
  %47 = load ptr, ptr %6, align 8, !tbaa !4
  %48 = load ptr, ptr %10, align 8, !tbaa !19
  %49 = load ptr, ptr %11, align 8, !tbaa !19
  call void (ptr, i32, ptr, ...) @av_log(ptr noundef %47, i32 noundef 48, ptr noundef @.str.104, ptr noundef %48, ptr noundef %49)
  %50 = load ptr, ptr %6, align 8, !tbaa !4
  %51 = load ptr, ptr %10, align 8, !tbaa !19
  %52 = load ptr, ptr %11, align 8, !tbaa !19
  %53 = call i32 @av_opt_set(ptr noundef %50, ptr noundef %51, ptr noundef %52, i32 noundef 1)
  store i32 %53, ptr %12, align 4, !tbaa !20
  %54 = load i32, ptr %12, align 4, !tbaa !20
  %55 = icmp eq i32 %54, -1414549496
  br i1 %55, label %56, label %59

56:                                               ; preds = %46
  %57 = load ptr, ptr %6, align 8, !tbaa !4
  %58 = load ptr, ptr %10, align 8, !tbaa !19
  call void (ptr, i32, ptr, ...) @av_log(ptr noundef %57, i32 noundef 16, ptr noundef @.str.105, ptr noundef %58)
  br label %59

59:                                               ; preds = %56, %46
  %60 = load ptr, ptr %10, align 8, !tbaa !19
  call void @av_free(ptr noundef %60)
  %61 = load ptr, ptr %11, align 8, !tbaa !19
  call void @av_free(ptr noundef %61)
  %62 = load i32, ptr %12, align 4, !tbaa !20
  store i32 %62, ptr %5, align 4
  store i32 1, ptr %13, align 4
  br label %63

63:                                               ; preds = %59, %42, %40, %19
  call void @llvm.lifetime.end.p0(i64 4, ptr %12) #11
  call void @llvm.lifetime.end.p0(i64 8, ptr %11) #11
  call void @llvm.lifetime.end.p0(i64 8, ptr %10) #11
  %64 = load i32, ptr %5, align 4
  ret i32 %64
}

; Function Attrs: nounwind uwtable
define i32 @av_set_options_string(ptr noundef %0, ptr noundef %1, ptr noundef %2, ptr noundef %3) #0 {
  %5 = alloca i32, align 4
  %6 = alloca ptr, align 8
  %7 = alloca ptr, align 8
  %8 = alloca ptr, align 8
  %9 = alloca ptr, align 8
  %10 = alloca i32, align 4
  %11 = alloca i32, align 4
  %12 = alloca i32, align 4
  store ptr %0, ptr %6, align 8, !tbaa !4
  store ptr %1, ptr %7, align 8, !tbaa !19
  store ptr %2, ptr %8, align 8, !tbaa !19
  store ptr %3, ptr %9, align 8, !tbaa !19
  call void @llvm.lifetime.start.p0(i64 4, ptr %10) #11
  call void @llvm.lifetime.start.p0(i64 4, ptr %11) #11
  store i32 0, ptr %11, align 4, !tbaa !20
  %13 = load ptr, ptr %7, align 8, !tbaa !19
  %14 = icmp ne ptr %13, null
  br i1 %14, label %16, label %15

15:                                               ; preds = %4
  store i32 0, ptr %5, align 4
  store i32 1, ptr %12, align 4
  br label %41

16:                                               ; preds = %4
  br label %17

17:                                               ; preds = %38, %16
  %18 = load ptr, ptr %7, align 8, !tbaa !19
  %19 = load i8, ptr %18, align 1, !tbaa !35
  %20 = icmp ne i8 %19, 0
  br i1 %20, label %21, label %39

21:                                               ; preds = %17
  %22 = load ptr, ptr %6, align 8, !tbaa !4
  %23 = load ptr, ptr %8, align 8, !tbaa !19
  %24 = load ptr, ptr %9, align 8, !tbaa !19
  %25 = call i32 @parse_key_value_pair(ptr noundef %22, ptr noundef %7, ptr noundef %23, ptr noundef %24)
  store i32 %25, ptr %10, align 4, !tbaa !20
  %26 = icmp slt i32 %25, 0
  br i1 %26, label %27, label %29

27:                                               ; preds = %21
  %28 = load i32, ptr %10, align 4, !tbaa !20
  store i32 %28, ptr %5, align 4
  store i32 1, ptr %12, align 4
  br label %41

29:                                               ; preds = %21
  %30 = load i32, ptr %11, align 4, !tbaa !20
  %31 = add nsw i32 %30, 1
  store i32 %31, ptr %11, align 4, !tbaa !20
  %32 = load ptr, ptr %7, align 8, !tbaa !19
  %33 = load i8, ptr %32, align 1, !tbaa !35
  %34 = icmp ne i8 %33, 0
  br i1 %34, label %35, label %38

35:                                               ; preds = %29
  %36 = load ptr, ptr %7, align 8, !tbaa !19
  %37 = getelementptr inbounds nuw i8, ptr %36, i32 1
  store ptr %37, ptr %7, align 8, !tbaa !19
  br label %38

38:                                               ; preds = %35, %29
  br label %17, !llvm.loop !98

39:                                               ; preds = %17
  %40 = load i32, ptr %11, align 4, !tbaa !20
  store i32 %40, ptr %5, align 4
  store i32 1, ptr %12, align 4
  br label %41

41:                                               ; preds = %39, %27, %15
  call void @llvm.lifetime.end.p0(i64 4, ptr %11) #11
  call void @llvm.lifetime.end.p0(i64 4, ptr %10) #11
  %42 = load i32, ptr %5, align 4
  ret i32 %42
}