; Function Attrs: nounwind uwtable
define i32 @av_set_options_string(ptr noundef %0, ptr noundef %1, ptr noundef %2, ptr noundef %3) local_unnamed_addr #2 {
  %5 = alloca ptr, align 8
  %6 = alloca ptr, align 8
  %7 = alloca ptr, align 8
  %8 = alloca ptr, align 8
  %9 = alloca ptr, align 8
  store ptr %1, ptr %9, align 8, !tbaa !33
  %.not = icmp eq ptr %1, null
  br i1 %.not, label %.loopexit, label %.preheader

.preheader:                                       ; preds = %4
  %10 = load i8, ptr %1, align 1, !tbaa !29
  %.not813 = icmp eq i8 %10, 0
  br i1 %.not813, label %.loopexit, label %.lr.ph

.lr.ph:                                           ; preds = %.preheader, %41
  %.014 = phi i32 [ %38, %41 ], [ 0, %.preheader ]
  call void @llvm.lifetime.start.p0(i64 8, ptr nonnull %8) #18
  %11 = call ptr @av_get_token(ptr noundef nonnull %9, ptr noundef %2) #18
  store ptr %11, ptr %8, align 8, !tbaa !33
  %.not.i = icmp eq ptr %11, null
  br i1 %.not.i, label %parse_key_value_pair.exit.thread, label %12

12:                                               ; preds = %.lr.ph
  %13 = load i8, ptr %11, align 1, !tbaa !29
  %.not19.i = icmp eq i8 %13, 0
  br i1 %.not19.i, label %21, label %14

14:                                               ; preds = %12
  %15 = load ptr, ptr %9, align 8, !tbaa !33
  %16 = call i64 @strspn(ptr noundef %15, ptr noundef %2) #19
  %.not20.i = icmp eq i64 %16, 0
  br i1 %.not20.i, label %21, label %17

17:                                               ; preds = %14
  %18 = getelementptr inbounds nuw i8, ptr %15, i64 1
  store ptr %18, ptr %9, align 8, !tbaa !33
  %19 = call ptr @av_get_token(ptr noundef nonnull %9, ptr noundef %3) #18
  %.not21.i = icmp eq ptr %19, null
  br i1 %.not21.i, label %20, label %22

20:                                               ; preds = %17
  call void @av_freep(ptr noundef nonnull %8) #18
  br label %parse_key_value_pair.exit.thread

21:                                               ; preds = %14, %12
  call void (ptr, i32, ptr, ...) @av_log(ptr noundef %0, i32 noundef 16, ptr noundef nonnull @.str.103, ptr noundef nonnull %11) #18
  call void @av_free(ptr noundef nonnull %11) #18
  br label %parse_key_value_pair.exit.thread

22:                                               ; preds = %17
  call void (ptr, i32, ptr, ...) @av_log(ptr noundef %0, i32 noundef 48, ptr noundef nonnull @.str.104, ptr noundef nonnull %11, ptr noundef nonnull %19) #18
  call void @llvm.lifetime.start.p0(i64 8, ptr nonnull %5) #18
  call void @llvm.lifetime.start.p0(i64 8, ptr nonnull %6) #18
  call void @llvm.lifetime.start.p0(i64 8, ptr nonnull %7) #18
  %23 = call fastcc i32 @opt_set_init(ptr noundef %0, ptr noundef nonnull %11, i32 noundef 1, i32 noundef 0, ptr noundef nonnull %6, ptr noundef nonnull %7, ptr noundef %5)
  %24 = icmp slt i32 %23, 0
  br i1 %24, label %av_opt_set.exit.i, label %25

25:                                               ; preds = %22
  %26 = load ptr, ptr %7, align 8, !tbaa !17
  %27 = getelementptr inbounds nuw i8, ptr %26, i64 20
  %28 = load i32, ptr %27, align 4, !tbaa !18
  %29 = and i32 %28, 65536
  %.not.i.i = icmp eq i32 %29, 0
  %30 = select i1 %.not.i.i, ptr @opt_set_elem, ptr @opt_set_array
  %31 = load ptr, ptr %6, align 8, !tbaa !19
  %32 = load ptr, ptr %5, align 8, !tbaa !19
  %33 = call i32 %30(ptr noundef %0, ptr noundef %31, ptr noundef %26, ptr noundef nonnull %19, ptr noundef %32) #18, !callees !20
  br label %av_opt_set.exit.i

av_opt_set.exit.i:                                ; preds = %25, %22
  %.0.i.i = phi i32 [ %33, %25 ], [ %23, %22 ]
  call void @llvm.lifetime.end.p0(i64 8, ptr nonnull %7) #18
  call void @llvm.lifetime.end.p0(i64 8, ptr nonnull %6) #18
  call void @llvm.lifetime.end.p0(i64 8, ptr nonnull %5) #18
  %34 = icmp eq i32 %.0.i.i, -1414549496
  br i1 %34, label %35, label %parse_key_value_pair.exit

35:                                               ; preds = %av_opt_set.exit.i
  call void (ptr, i32, ptr, ...) @av_log(ptr noundef %0, i32 noundef 16, ptr noundef nonnull @.str.105, ptr noundef nonnull %11) #18
  br label %parse_key_value_pair.exit

parse_key_value_pair.exit.thread:                 ; preds = %.lr.ph, %20, %21
  %.0.i.ph = phi i32 [ -22, %21 ], [ -12, %20 ], [ -12, %.lr.ph ]
  call void @llvm.lifetime.end.p0(i64 8, ptr nonnull %8) #18
  br label %.loopexit

parse_key_value_pair.exit:                        ; preds = %av_opt_set.exit.i, %35
  call void @av_free(ptr noundef nonnull %11) #18
  call void @av_free(ptr noundef nonnull %19) #18
  call void @llvm.lifetime.end.p0(i64 8, ptr nonnull %8) #18
  %36 = icmp slt i32 %.0.i.i, 0
  br i1 %36, label %.loopexit, label %37

37:                                               ; preds = %parse_key_value_pair.exit
  %38 = add nuw nsw i32 %.014, 1
  %39 = load ptr, ptr %9, align 8, !tbaa !33
  %40 = load i8, ptr %39, align 1, !tbaa !29
  %.not9 = icmp eq i8 %40, 0
  br i1 %.not9, label %.loopexit, label %41

41:                                               ; preds = %37
  %42 = getelementptr inbounds nuw i8, ptr %39, i64 1
  store ptr %42, ptr %9, align 8, !tbaa !33
  %.pre = load i8, ptr %42, align 1, !tbaa !29
  %43 = icmp eq i8 %.pre, 0
  br i1 %43, label %.loopexit, label %.lr.ph, !llvm.loop !90

.loopexit:                                        ; preds = %37, %parse_key_value_pair.exit, %41, %.preheader, %parse_key_value_pair.exit.thread, %4
  %.06 = phi i32 [ 0, %4 ], [ %.0.i.ph, %parse_key_value_pair.exit.thread ], [ 0, %.preheader ], [ %38, %37 ], [ %.0.i.i, %parse_key_value_pair.exit ], [ %38, %41 ]
  ret i32 %.06
}